
wiscv.o:     file format elf32-littleriscv


Disassembly of section .text:

00000000 <_start>:
   0:	00001197          	auipc	gp,0x1
   4:	96018193          	add	gp,gp,-1696 # 960 <__global_pointer$>
   8:	00002117          	auipc	sp,0x2
   c:	ff810113          	add	sp,sp,-8 # 2000 <__stack_top>
  10:	00010433          	add	s0,sp,zero
  14:	010000ef          	jal	24 <main>
  18:	004000ef          	jal	1c <_exit>

0000001c <_exit>:
  1c:	05d00893          	li	a7,93
  20:	00000073          	ecall

00000024 <main>:
  24:	fe010113          	add	sp,sp,-32
  28:	00812e23          	sw	s0,28(sp)
  2c:	02010413          	add	s0,sp,32
  30:	16402783          	lw	a5,356(zero) # 164 <joystick>
  34:	0007a783          	lw	a5,0(a5)
  38:	00a7d793          	srl	a5,a5,0xa
  3c:	0037f713          	and	a4,a5,3
  40:	16e02623          	sw	a4,364(zero) # 16c <x1_val>
  44:	16402783          	lw	a5,356(zero) # 164 <joystick>
  48:	0007a783          	lw	a5,0(a5)
  4c:	0087d793          	srl	a5,a5,0x8
  50:	0037f713          	and	a4,a5,3
  54:	16e02823          	sw	a4,368(zero) # 170 <y1_val>
  58:	16402783          	lw	a5,356(zero) # 164 <joystick>
  5c:	0007a783          	lw	a5,0(a5)
  60:	0067d793          	srl	a5,a5,0x6
  64:	0037f713          	and	a4,a5,3
  68:	16e02a23          	sw	a4,372(zero) # 174 <ps1_val>
  6c:	16402783          	lw	a5,356(zero) # 164 <joystick>
  70:	0007a783          	lw	a5,0(a5)
  74:	0047d793          	srl	a5,a5,0x4
  78:	0037f713          	and	a4,a5,3
  7c:	16e02c23          	sw	a4,376(zero) # 178 <x2_val>
  80:	16402783          	lw	a5,356(zero) # 164 <joystick>
  84:	0007a783          	lw	a5,0(a5)
  88:	0027d793          	srl	a5,a5,0x2
  8c:	0037f713          	and	a4,a5,3
  90:	16e02e23          	sw	a4,380(zero) # 17c <y2_val>
  94:	16402783          	lw	a5,356(zero) # 164 <joystick>
  98:	0007a783          	lw	a5,0(a5)
  9c:	0037f713          	and	a4,a5,3
  a0:	18e02023          	sw	a4,384(zero) # 180 <ps2_val>
  a4:	16402783          	lw	a5,356(zero) # 164 <joystick>
  a8:	03f00713          	li	a4,63
  ac:	00e7a023          	sw	a4,0(a5)
  b0:	16c02783          	lw	a5,364(zero) # 16c <x1_val>
  b4:	00f027b3          	sgtz	a5,a5
  b8:	0ff7f793          	zext.b	a5,a5
  bc:	fef42623          	sw	a5,-20(s0)
  c0:	17002783          	lw	a5,368(zero) # 170 <y1_val>
  c4:	00f027b3          	sgtz	a5,a5
  c8:	0ff7f793          	zext.b	a5,a5
  cc:	fef42423          	sw	a5,-24(s0)
  d0:	fec42703          	lw	a4,-20(s0)
  d4:	fe842783          	lw	a5,-24(s0)
  d8:	00f777b3          	and	a5,a4,a5
  dc:	f4078ae3          	beqz	a5,30 <main+0xc>
  e0:	03600713          	li	a4,54
  e4:	16e02823          	sw	a4,368(zero) # 170 <y1_val>
  e8:	00000013          	nop
  ec:	17002703          	lw	a4,368(zero) # 170 <y1_val>
  f0:	16002783          	lw	a5,352(zero) # 160 <debug>
  f4:	00e7a023          	sw	a4,0(a5)
  f8:	00000793          	li	a5,0
  fc:	00078513          	mv	a0,a5
 100:	01c12403          	lw	s0,28(sp)
 104:	02010113          	add	sp,sp,32
 108:	00008067          	ret
